; Function Attrs: inlinehint nounwind uwtable
define internal fastcc noalias nonnull ptr @lean_box_float(double noundef %0) unnamed_addr #1 {
  tail call void @lean_inc_heartbeat() #4
  %2 = tail call noalias ptr @mi_malloc_small(i64 noundef 16) #4
  %3 = icmp eq ptr %2, null
  br i1 %3, label %4, label %lean_alloc_ctor.exit

4:                                                ; preds = %1
  tail call void @lean_internal_panic_out_of_memory() #5
  unreachable

lean_alloc_ctor.exit:                             ; preds = %1
  %5 = getelementptr inbounds nuw i8, ptr %2, i64 4
  store i32 1, ptr %2, align 4, !tbaa !4
  store i32 16, ptr %5, align 4
  %6 = getelementptr inbounds nuw i8, ptr %2, i64 8
  store double %0, ptr %6, align 8, !tbaa !16
  ret ptr %2
}